; Function Attrs: nounwind uwtable
define noalias nonnull ptr @l_Lake_StrPat_endsWith(ptr noundef %0) local_unnamed_addr #0 {
  tail call void @lean_inc_heartbeat() #7
  %2 = tail call noalias ptr @mi_malloc_small(i64 noundef 16) #7
  %3 = icmp eq ptr %2, null
  br i1 %3, label %4, label %lean_alloc_ctor.exit

4:                                                ; preds = %1
  tail call void @lean_internal_panic_out_of_memory() #8
  unreachable

lean_alloc_ctor.exit:                             ; preds = %1
  %5 = getelementptr inbounds nuw i8, ptr %2, i64 4
  store i32 1, ptr %2, align 4, !tbaa !8
  store i32 33619984, ptr %5, align 4
  %6 = getelementptr inbounds nuw i8, ptr %2, i64 8
  store ptr %0, ptr %6, align 8, !tbaa !4
  tail call void @lean_inc_heartbeat() #7
  %7 = tail call noalias ptr @mi_malloc_small(i64 noundef 16) #7
  %8 = icmp eq ptr %7, null
  br i1 %8, label %9, label %lean_alloc_ctor.exit16

9:                                                ; preds = %lean_alloc_ctor.exit
  tail call void @lean_internal_panic_out_of_memory() #8
  unreachable

lean_alloc_ctor.exit16:                           ; preds = %lean_alloc_ctor.exit
  %10 = getelementptr inbounds nuw i8, ptr %7, i64 4
  store i32 1, ptr %7, align 4, !tbaa !8
  store i32 50397200, ptr %10, align 4
  %11 = getelementptr inbounds nuw i8, ptr %7, i64 8
  store ptr %2, ptr %11, align 8, !tbaa !4
  %12 = ptrtoint ptr %7 to i64
  %13 = and i64 %12, 1
  %.not = icmp eq i64 %13, 0
  br i1 %.not, label %lean_inc_ref.exit, label %lean_inc.exit

lean_inc_ref.exit:                                ; preds = %lean_alloc_ctor.exit16
  store i32 2, ptr %7, align 4, !tbaa !8
  br label %lean_inc.exit

lean_inc.exit:                                    ; preds = %lean_alloc_ctor.exit16, %lean_inc_ref.exit
  tail call void @lean_inc_heartbeat() #7
  %14 = tail call noalias ptr @mi_malloc_small(i64 noundef 32) #7
  %15 = icmp eq ptr %14, null
  br i1 %15, label %16, label %lean_alloc_closure.exit

16:                                               ; preds = %lean_inc.exit
  tail call void @lean_internal_panic_out_of_memory() #8
  unreachable

lean_alloc_closure.exit:                          ; preds = %lean_inc.exit
  %17 = getelementptr inbounds nuw i8, ptr %14, i64 4
  store i32 1, ptr %14, align 4, !tbaa !8
  store i32 -184549344, ptr %17, align 4
  %18 = getelementptr inbounds nuw i8, ptr %14, i64 8
  store ptr @l_Lake_StrPat_mem___lambda__1___boxed, ptr %18, align 8, !tbaa !4
  %19 = getelementptr inbounds nuw i8, ptr %14, i64 16
  store i16 2, ptr %19, align 8, !tbaa !14
  %20 = getelementptr inbounds nuw i8, ptr %14, i64 18
  store i16 1, ptr %20, align 2, !tbaa !14
  %21 = getelementptr inbounds nuw i8, ptr %14, i64 24
  store ptr %7, ptr %21, align 8, !tbaa !4
  tail call void @lean_inc_heartbeat() #7
  %22 = tail call noalias ptr @mi_malloc_small(i64 noundef 16) #7
  %23 = icmp eq ptr %22, null
  br i1 %23, label %24, label %lean_alloc_ctor.exit17

24:                                               ; preds = %lean_alloc_closure.exit
  tail call void @lean_internal_panic_out_of_memory() #8
  unreachable

lean_alloc_ctor.exit17:                           ; preds = %lean_alloc_closure.exit
  %25 = getelementptr inbounds nuw i8, ptr %22, i64 4
  store i32 1, ptr %22, align 4, !tbaa !8
  store i32 16842768, ptr %25, align 4
  %26 = getelementptr inbounds nuw i8, ptr %22, i64 8
  store ptr %7, ptr %26, align 8, !tbaa !4
  tail call void @lean_inc_heartbeat() #7
  %27 = tail call noalias ptr @mi_malloc_small(i64 noundef 32) #7
  %28 = icmp eq ptr %27, null
  br i1 %28, label %29, label %lean_alloc_ctor.exit18

29:                                               ; preds = %lean_alloc_ctor.exit17
  tail call void @lean_internal_panic_out_of_memory() #8
  unreachable

lean_alloc_ctor.exit18:                           ; preds = %lean_alloc_ctor.exit17
  %30 = getelementptr inbounds nuw i8, ptr %27, i64 4
  store i32 1, ptr %27, align 4, !tbaa !8
  store i32 196640, ptr %30, align 4
  %31 = getelementptr inbounds nuw i8, ptr %27, i64 8
  store ptr %14, ptr %31, align 8, !tbaa !4
  %32 = getelementptr inbounds nuw i8, ptr %27, i64 16
  store ptr inttoptr (i64 1 to ptr), ptr %32, align 8, !tbaa !4
  %33 = getelementptr inbounds nuw i8, ptr %27, i64 24
  store ptr %22, ptr %33, align 8, !tbaa !4
  ret ptr %27
}